target datalayout = "e-m:e-p270:32:32-p271:32:32-p272:64:64-i64:64-i128:128-f80:128-n8:16:32:64-S128"
target triple = "x86_64-pc-linux-gnu"

%struct.slurm_conf_t = type { i64, ptr, i16, ptr, ptr, ptr, ptr, ptr, i16, ptr, ptr, ptr, ptr, ptr, ptr, ptr, i16, ptr, ptr, ptr, ptr, i16, ptr, ptr, ptr, i64, ptr, ptr, ptr, ptr, i16, ptr, ptr, i16, i32, ptr, i32, ptr, i32, i32, ptr, ptr, i64, i64, ptr, i16, i16, ptr, i32, i32, ptr, i32, ptr, i32, i16, i16, i16, ptr, i16, i16, ptr, ptr, i32, i16, i16, ptr, i32, i16, ptr, ptr, ptr, ptr, i16, ptr, ptr, ptr, ptr, i32, ptr, ptr, ptr, ptr, i16, i16, ptr, i32, i32, i32, i16, i16, ptr, ptr, i16, ptr, ptr, i32, i32, i32, i32, i32, i64, i32, i32, i16, ptr, ptr, i32, ptr, ptr, ptr, i16, i32, ptr, ptr, i16, ptr, ptr, i32, i16, ptr, ptr, ptr, ptr, i32, i32, i16, i16, i32, ptr, i16, ptr, i32, i32, i32, i32, i32, i32, ptr, i16, ptr, ptr, i32, i16, ptr, i32, i16, i16, ptr, ptr, ptr, i16, ptr, ptr, ptr, ptr, i16, i16, ptr, i16, ptr, i16, ptr, i16, ptr, i16, ptr, ptr, ptr, ptr, i16, ptr, ptr, ptr, i32, ptr, i32, ptr, ptr, i16, ptr, ptr, i32, i16, ptr, ptr, i16, i16, ptr, i16, ptr, ptr, ptr, i32, ptr, i16, i16, ptr, ptr, ptr, ptr, ptr, ptr, ptr, ptr, i16, i32, i16, ptr, ptr, ptr, ptr, i32, ptr, ptr, ptr, i16, ptr, ptr, ptr, i16, ptr, i16, ptr, i16, i16, ptr }
%union.pthread_mutex_t = type { %struct.__pthread_mutex_s }
%struct.__pthread_mutex_s = type { i32, i32, i32, i32, i32, i16, i16, %struct.__pthread_internal_list }
%struct.__pthread_internal_list = type { ptr, ptr }
%struct.slurmdbd_conn_t = type { ptr, ptr, %union.pthread_mutex_t, ptr, ptr }
%struct.persist_conn_t = type { ptr, i32, i32, i8, ptr, ptr, ptr, i64, i16, i32, i16, i8, i32, i32, ptr, i16, ptr, i64, i32, ptr, %struct.slurm_trigger_callbacks_t, i16 }
%struct.slurm_trigger_callbacks_t = type { ptr, ptr, ptr, ptr, ptr }
%struct.persist_msg_t = type { ptr, ptr, i16 }
%struct.job_record = type { i32, ptr, ptr, ptr, ptr, i16, i32, i32, i32, ptr, i32, ptr, ptr, i16, ptr, double, i64, ptr, ptr, ptr, ptr, ptr, ptr, i32, ptr, i32, i64, i64, i32, i32, ptr, i16, i64, i64, i8, i32, ptr, ptr, ptr, ptr, ptr, ptr, ptr, ptr, i32, ptr, ptr, i32, ptr, i32, ptr, i32, ptr, i32, ptr, ptr, ptr, ptr, ptr, ptr, i32, i16, i64, ptr, ptr, ptr, ptr, %struct.acct_policy_limit_set_t, i16, ptr, ptr, ptr, ptr, ptr, i32, ptr, ptr, ptr, ptr, ptr, i32, i32, ptr, ptr, ptr, i16, ptr, ptr, i8, ptr, ptr, i64, i64, i8, i32, i32, i8, i32, ptr, i32, i64, i32, ptr, ptr, ptr, i8, i16, i64, i32, ptr, ptr, ptr, ptr, ptr, i16, i32, ptr, ptr, ptr, ptr, i32, ptr, i32, i16, i64, ptr, i32, i32, ptr, i64, ptr, ptr, i64, i32, i32, i64, i32, i32, ptr, ptr, ptr, ptr, ptr, ptr, ptr, ptr, ptr, ptr, ptr, ptr, i32, ptr, i16, i16, i16, i16, ptr, i32, i32, i8, i64 }
%struct.acct_policy_limit_set_t = type { i16, i16, ptr }
%struct.job_details_t = type { i32, ptr, i64, ptr, i32, ptr, i64, ptr, i16, i16, ptr, i16, i32, i32, i32, i16, ptr, i16, ptr, ptr, ptr, i16, ptr, ptr, ptr, ptr, i32, ptr, ptr, ptr, ptr, ptr, i32, i32, i32, ptr, ptr, i16, i32, i32, i32, i32, i32, i32, i16, i16, i32, i8, i8, i32, i32, i64, i64, i16, i32, ptr, ptr, i8, ptr, i32, ptr, i64, ptr, ptr, i16, i16, i16, i8, ptr, ptr, ptr, ptr, ptr, ptr, i64, i32, i32, i8, ptr, i16, ptr, ptr, i16 }
%struct.step_record_t = type { i32, ptr, ptr, ptr, i32, ptr, ptr, i32, i32, i32, i32, i16, i16, ptr, i16, i32, ptr, i32, ptr, ptr, ptr, ptr, ptr, ptr, ptr, ptr, ptr, i64, i16, i64, i16, ptr, i16, ptr, i32, i64, i32, ptr, i32, i32, %struct.slurm_step_id_msg, ptr, ptr, ptr, ptr, i16, i64, i64, ptr, ptr, ptr, ptr, ptr, ptr, ptr, ptr }
%struct.slurm_step_id_msg = type { i64, i32, i32, i32 }
%struct.dbd_step_comp_msg = type { i32, i64, i64, i32, ptr, i64, ptr, i32, i64, i16, %struct.slurm_step_id_msg, i32 }

@slurm_conf = external global %struct.slurm_conf_t, align 8
@.str.62 = private unnamed_addr constant [6 x i8] c"%s %u\00", align 1
@.str.143 = private unnamed_addr constant [43 x i8] c"DBD_STEP_COMPLETE message from invalid uid\00", align 1
@.str.144 = private unnamed_addr constant [34 x i8] c"DBD_STEP_COMPLETE: %ps SUBMIT:%lu\00", align 1
@.str.145 = private unnamed_addr constant [42 x i8] c"DBD_STEP_COMPLETE: cluster not registered\00", align 1

; Function Attrs: nounwind uwtable
define internal zeroext i1 @_validate_slurm_user(ptr noundef %0) #0 {
  %2 = alloca i1, align 1
  %3 = alloca ptr, align 8
  %4 = alloca i32, align 4
  %5 = alloca i32, align 4
  store ptr %0, ptr %3, align 8
  call void @llvm.lifetime.start.p0(i64 4, ptr %4) #8
  %6 = load ptr, ptr %3, align 8
  %7 = getelementptr inbounds nuw %struct.slurmdbd_conn_t, ptr %6, i32 0, i32 0
  %8 = load ptr, ptr %7, align 8
  %9 = getelementptr inbounds nuw %struct.persist_conn_t, ptr %8, i32 0, i32 1
  %10 = load i32, ptr %9, align 8
  store i32 %10, ptr %4, align 4
  %11 = load i32, ptr %4, align 4
  %12 = icmp eq i32 %11, 0
  br i1 %12, label %17, label %13

13:                                               ; preds = %1
  %14 = load i32, ptr %4, align 4
  %15 = load i32, ptr getelementptr inbounds nuw (%struct.slurm_conf_t, ptr @slurm_conf, i32 0, i32 173), align 8
  %16 = icmp eq i32 %14, %15
  br i1 %16, label %17, label %18

17:                                               ; preds = %13, %1
  store i1 true, ptr %2, align 1
  store i32 1, ptr %5, align 4
  br label %19

18:                                               ; preds = %13
  store i1 false, ptr %2, align 1
  store i32 1, ptr %5, align 4
  br label %19

19:                                               ; preds = %18, %17
  call void @llvm.lifetime.end.p0(i64 4, ptr %4) #8
  %20 = load i1, ptr %2, align 1
  ret i1 %20
}

; Function Attrs: nounwind uwtable
define internal i32 @_step_complete(ptr noundef %0, ptr noundef %1, ptr noundef %2) #0 {
  %4 = alloca ptr, align 8
  %5 = alloca ptr, align 8
  %6 = alloca ptr, align 8
  %7 = alloca ptr, align 8
  %8 = alloca %struct.step_record_t, align 8
  %9 = alloca %struct.job_record, align 8
  %10 = alloca %struct.job_details_t, align 8
  %11 = alloca i32, align 4
  %12 = alloca ptr, align 8
  store ptr %0, ptr %4, align 8
  store ptr %1, ptr %5, align 8
  store ptr %2, ptr %6, align 8
  call void @llvm.lifetime.start.p0(i64 8, ptr %7) #8
  %13 = load ptr, ptr %5, align 8
  %14 = getelementptr inbounds nuw %struct.persist_msg_t, ptr %13, i32 0, i32 1
  %15 = load ptr, ptr %14, align 8
  store ptr %15, ptr %7, align 8
  call void @llvm.lifetime.start.p0(i64 424, ptr %8) #8
  call void @llvm.lifetime.start.p0(i64 1152, ptr %9) #8
  call void @llvm.lifetime.start.p0(i64 528, ptr %10) #8
  call void @llvm.lifetime.start.p0(i64 4, ptr %11) #8
  store i32 0, ptr %11, align 4
  call void @llvm.lifetime.start.p0(i64 8, ptr %12) #8
  store ptr null, ptr %12, align 8
  %16 = load ptr, ptr %4, align 8
  %17 = call zeroext i1 @_validate_slurm_user(ptr noundef %16)
  br i1 %17, label %26, label %18

18:                                               ; preds = %3
  store ptr @.str.143, ptr %12, align 8
  %19 = load ptr, ptr %12, align 8
  %20 = load ptr, ptr %4, align 8
  %21 = getelementptr inbounds nuw %struct.slurmdbd_conn_t, ptr %20, i32 0, i32 0
  %22 = load ptr, ptr %21, align 8
  %23 = getelementptr inbounds nuw %struct.persist_conn_t, ptr %22, i32 0, i32 1
  %24 = load i32, ptr %23, align 8
  %25 = call i32 (ptr, ...) @error(ptr noundef @.str.62, ptr noundef %19, i32 noundef %24)
  store i32 2002, ptr %11, align 4
  br label %155

26:                                               ; preds = %3
  br label %27

27:                                               ; preds = %26
  br label %28

28:                                               ; preds = %27
  %29 = call i32 @get_log_level()
  %30 = icmp sge i32 %29, 6
  br i1 %30, label %31, label %37

31:                                               ; preds = %28
  %32 = load ptr, ptr %7, align 8
  %33 = getelementptr inbounds nuw %struct.dbd_step_comp_msg, ptr %32, i32 0, i32 10
  %34 = load ptr, ptr %7, align 8
  %35 = getelementptr inbounds nuw %struct.dbd_step_comp_msg, ptr %34, i32 0, i32 5
  %36 = load i64, ptr %35, align 8
  call void (i32, ptr, ...) @log_var(i32 noundef 6, ptr noundef @.str.144, ptr noundef %33, i64 noundef %36)
  br label %37

37:                                               ; preds = %31, %28
  br label %38

38:                                               ; preds = %37
  br label %39

39:                                               ; preds = %38
  br label %40

40:                                               ; preds = %39
  br label %41

41:                                               ; preds = %40
  call void @llvm.memset.p0.i64(ptr align 8 %8, i8 0, i64 424, i1 false)
  call void @llvm.memset.p0.i64(ptr align 8 %9, i8 0, i64 1152, i1 false)
  call void @llvm.memset.p0.i64(ptr align 8 %10, i8 0, i64 528, i1 false)
  %42 = load ptr, ptr %7, align 8
  %43 = getelementptr inbounds nuw %struct.dbd_step_comp_msg, ptr %42, i32 0, i32 0
  %44 = load i32, ptr %43, align 8
  %45 = getelementptr inbounds nuw %struct.job_record, ptr %9, i32 0, i32 10
  store i32 %44, ptr %45, align 8
  %46 = load ptr, ptr %7, align 8
  %47 = getelementptr inbounds nuw %struct.dbd_step_comp_msg, ptr %46, i32 0, i32 1
  %48 = load i64, ptr %47, align 8
  %49 = icmp ne i64 %48, -2
  br i1 %49, label %50, label %55

50:                                               ; preds = %41
  %51 = load ptr, ptr %7, align 8
  %52 = getelementptr inbounds nuw %struct.dbd_step_comp_msg, ptr %51, i32 0, i32 1
  %53 = load i64, ptr %52, align 8
  %54 = getelementptr inbounds nuw %struct.job_record, ptr %9, i32 0, i32 26
  store i64 %53, ptr %54, align 8
  br label %55

55:                                               ; preds = %50, %41
  %56 = load ptr, ptr %7, align 8
  %57 = getelementptr inbounds nuw %struct.dbd_step_comp_msg, ptr %56, i32 0, i32 2
  %58 = load i64, ptr %57, align 8
  %59 = getelementptr inbounds nuw %struct.job_record, ptr %9, i32 0, i32 32
  store i64 %58, ptr %59, align 8
  %60 = load ptr, ptr %7, align 8
  %61 = getelementptr inbounds nuw %struct.dbd_step_comp_msg, ptr %60, i32 0, i32 3
  %62 = load i32, ptr %61, align 8
  %63 = getelementptr inbounds nuw %struct.step_record_t, ptr %8, i32 0, i32 15
  store i32 %62, ptr %63, align 4
  %64 = load ptr, ptr %7, align 8
  %65 = getelementptr inbounds nuw %struct.dbd_step_comp_msg, ptr %64, i32 0, i32 4
  %66 = load ptr, ptr %65, align 8
  %67 = getelementptr inbounds nuw %struct.step_record_t, ptr %8, i32 0, i32 22
  store ptr %66, ptr %67, align 8
  %68 = load ptr, ptr %7, align 8
  %69 = getelementptr inbounds nuw %struct.dbd_step_comp_msg, ptr %68, i32 0, i32 10
  %70 = getelementptr inbounds nuw %struct.slurm_step_id_msg, ptr %69, i32 0, i32 1
  %71 = load i32, ptr %70, align 8
  %72 = getelementptr inbounds nuw %struct.job_record, ptr %9, i32 0, i32 53
  store i32 %71, ptr %72, align 8
  %73 = load ptr, ptr %7, align 8
  %74 = getelementptr inbounds nuw %struct.dbd_step_comp_msg, ptr %73, i32 0, i32 7
  %75 = load i32, ptr %74, align 8
  %76 = getelementptr inbounds nuw %struct.step_record_t, ptr %8, i32 0, i32 34
  store i32 %75, ptr %76, align 8
  %77 = load ptr, ptr %4, align 8
  %78 = getelementptr inbounds nuw %struct.slurmdbd_conn_t, ptr %77, i32 0, i32 0
  %79 = load ptr, ptr %78, align 8
  %80 = getelementptr inbounds nuw %struct.persist_conn_t, ptr %79, i32 0, i32 21
  %81 = load i16, ptr %80, align 8
  %82 = getelementptr inbounds nuw %struct.job_record, ptr %9, i32 0, i32 123
  store i16 %81, ptr %82, align 4
  %83 = load ptr, ptr %7, align 8
  %84 = getelementptr inbounds nuw %struct.dbd_step_comp_msg, ptr %83, i32 0, i32 8
  %85 = load i64, ptr %84, align 8
  %86 = getelementptr inbounds nuw %struct.job_record, ptr %9, i32 0, i32 124
  store i64 %85, ptr %86, align 8
  %87 = load ptr, ptr %7, align 8
  %88 = getelementptr inbounds nuw %struct.dbd_step_comp_msg, ptr %87, i32 0, i32 6
  %89 = load ptr, ptr %88, align 8
  %90 = getelementptr inbounds nuw %struct.job_record, ptr %9, i32 0, i32 148
  store ptr %89, ptr %90, align 8
  %91 = load ptr, ptr %7, align 8
  %92 = getelementptr inbounds nuw %struct.dbd_step_comp_msg, ptr %91, i32 0, i32 9
  %93 = load i16, ptr %92, align 8
  %94 = zext i16 %93 to i32
  %95 = getelementptr inbounds nuw %struct.step_record_t, ptr %8, i32 0, i32 39
  store i32 %94, ptr %95, align 4
  %96 = getelementptr inbounds nuw %struct.step_record_t, ptr %8, i32 0, i32 40
  %97 = load ptr, ptr %7, align 8
  %98 = getelementptr inbounds nuw %struct.dbd_step_comp_msg, ptr %97, i32 0, i32 10
  call void @llvm.memcpy.p0.p0.i64(ptr align 8 %96, ptr align 8 %98, i64 24, i1 false)
  %99 = load ptr, ptr %7, align 8
  %100 = getelementptr inbounds nuw %struct.dbd_step_comp_msg, ptr %99, i32 0, i32 5
  %101 = load i64, ptr %100, align 8
  %102 = getelementptr inbounds nuw %struct.job_details_t, ptr %10, i32 0, i32 74
  store i64 %101, ptr %102, align 8
  %103 = load ptr, ptr %7, align 8
  %104 = getelementptr inbounds nuw %struct.dbd_step_comp_msg, ptr %103, i32 0, i32 11
  %105 = load i32, ptr %104, align 8
  %106 = getelementptr inbounds nuw %struct.job_details_t, ptr %10, i32 0, i32 46
  store i32 %105, ptr %106, align 8
  %107 = getelementptr inbounds nuw %struct.job_record, ptr %9, i32 0, i32 30
  store ptr %10, ptr %107, align 8
  %108 = getelementptr inbounds nuw %struct.step_record_t, ptr %8, i32 0, i32 21
  store ptr %9, ptr %108, align 8
  %109 = load ptr, ptr %4, align 8
  %110 = getelementptr inbounds nuw %struct.slurmdbd_conn_t, ptr %109, i32 0, i32 3
  %111 = load ptr, ptr %110, align 8
  %112 = call i32 @jobacct_storage_g_step_complete(ptr noundef %111, ptr noundef %8)
  store i32 %112, ptr %11, align 4
  %113 = load i32, ptr %11, align 4
  %114 = icmp ne i32 %113, 0
  br i1 %114, label %115, label %120

115:                                              ; preds = %55
  %116 = call ptr @__errno_location() #10
  %117 = load i32, ptr %116, align 4
  %118 = icmp eq i32 %117, 740
  br i1 %118, label %119, label %120

119:                                              ; preds = %115
  store i32 0, ptr %11, align 4
  br label %120

120:                                              ; preds = %119, %115, %55
  %121 = getelementptr inbounds nuw %struct.job_record, ptr %9, i32 0, i32 156
  call void @slurm_xfree(ptr noundef %121)
  %122 = load ptr, ptr %4, align 8
  %123 = getelementptr inbounds nuw %struct.slurmdbd_conn_t, ptr %122, i32 0, i32 0
  %124 = load ptr, ptr %123, align 8
  %125 = getelementptr inbounds nuw %struct.persist_conn_t, ptr %124, i32 0, i32 15
  %126 = load i16, ptr %125, align 8
  %127 = icmp ne i16 %126, 0
  br i1 %127, label %154, label %128

128:                                              ; preds = %120
  br label %129

129:                                              ; preds = %128
  br label %130

130:                                              ; preds = %129
  %131 = call i32 @get_log_level()
  %132 = icmp sge i32 %131, 7
  br i1 %132, label %133, label %134

133:                                              ; preds = %130
  call void (i32, ptr, ...) @log_var(i32 noundef 7, ptr noundef @.str.145)
  br label %134

134:                                              ; preds = %133, %130
  br label %135

135:                                              ; preds = %134
  br label %136

136:                                              ; preds = %135
  br label %137

137:                                              ; preds = %136
  br label %138

138:                                              ; preds = %137
  %139 = load ptr, ptr %4, align 8
  %140 = getelementptr inbounds nuw %struct.slurmdbd_conn_t, ptr %139, i32 0, i32 3
  %141 = load ptr, ptr %140, align 8
  %142 = load ptr, ptr %4, align 8
  %143 = getelementptr inbounds nuw %struct.slurmdbd_conn_t, ptr %142, i32 0, i32 0
  %144 = load ptr, ptr %143, align 8
  %145 = getelementptr inbounds nuw %struct.persist_conn_t, ptr %144, i32 0, i32 14
  %146 = load ptr, ptr %145, align 8
  %147 = call i32 @clusteracct_storage_g_register_disconn_ctld(ptr noundef %141, ptr noundef %146)
  %148 = trunc i32 %147 to i16
  %149 = load ptr, ptr %4, align 8
  %150 = getelementptr inbounds nuw %struct.slurmdbd_conn_t, ptr %149, i32 0, i32 0
  %151 = load ptr, ptr %150, align 8
  %152 = getelementptr inbounds nuw %struct.persist_conn_t, ptr %151, i32 0, i32 15
  store i16 %148, ptr %152, align 8
  %153 = load ptr, ptr %4, align 8
  call void @_add_registered_cluster(ptr noundef %153)
  br label %154

154:                                              ; preds = %138, %120
  br label %155

155:                                              ; preds = %154, %18
  %156 = load ptr, ptr %4, align 8
  %157 = getelementptr inbounds nuw %struct.slurmdbd_conn_t, ptr %156, i32 0, i32 0
  %158 = load ptr, ptr %157, align 8
  %159 = load i32, ptr %11, align 4
  %160 = load ptr, ptr %12, align 8
  %161 = call ptr @slurm_persist_make_rc_msg(ptr noundef %158, i32 noundef %159, ptr noundef %160, i16 noundef zeroext 1441)
  %162 = load ptr, ptr %6, align 8
  store ptr %161, ptr %162, align 8
  %163 = load i32, ptr %11, align 4
  call void @llvm.lifetime.end.p0(i64 8, ptr %12) #8
  call void @llvm.lifetime.end.p0(i64 4, ptr %11) #8
  call void @llvm.lifetime.end.p0(i64 528, ptr %10) #8
  call void @llvm.lifetime.end.p0(i64 1152, ptr %9) #8
  call void @llvm.lifetime.end.p0(i64 424, ptr %8) #8
  call void @llvm.lifetime.end.p0(i64 8, ptr %7) #8
  ret i32 %163
}