; Function Attrs: nounwind uwtable
define internal fastcc noundef i32 @_step_complete(ptr noundef %0, ptr %.8.val, ptr noundef writeonly captures(none) initializes((0, 8)) %1) unnamed_addr #0 {
  %3 = alloca %struct.step_record_t, align 8
  %4 = alloca %struct.job_record, align 8
  %5 = alloca %struct.job_details_t, align 8
  call void @llvm.lifetime.start.p0(i64 424, ptr nonnull %3) #10
  call void @llvm.lifetime.start.p0(i64 1152, ptr nonnull %4) #10
  call void @llvm.lifetime.start.p0(i64 528, ptr nonnull %5) #10
  %.val = load ptr, ptr %0, align 8
  %6 = getelementptr i8, ptr %.val, i64 8
  %.val.val = load i32, ptr %6, align 8
  %7 = icmp eq i32 %.val.val, 0
  %8 = load i32, ptr getelementptr inbounds nuw (i8, ptr @slurm_conf, i64 1152), align 8
  %9 = icmp eq i32 %.val.val, %8
  %or.cond.i = select i1 %7, i1 true, i1 %9
  br i1 %or.cond.i, label %12, label %10

10:                                               ; preds = %2
  %11 = tail call i32 (ptr, ...) @error(ptr noundef nonnull @.str.62, ptr noundef nonnull @.str.143, i32 noundef %.val.val) #10
  br label %91

12:                                               ; preds = %2
  %13 = tail call i32 @get_log_level() #10
  %14 = icmp sgt i32 %13, 5
  br i1 %14, label %15, label %19

15:                                               ; preds = %12
  %16 = getelementptr inbounds nuw i8, ptr %.8.val, i64 80
  %17 = getelementptr inbounds nuw i8, ptr %.8.val, i64 40
  %18 = load i64, ptr %17, align 8
  tail call void (i32, ptr, ...) @log_var(i32 noundef 6, ptr noundef nonnull @.str.144, ptr noundef nonnull %16, i64 noundef %18) #10
  br label %19

19:                                               ; preds = %15, %12
  call void @llvm.memset.p0.i64(ptr noundef nonnull align 8 dereferenceable(424) %3, i8 0, i64 424, i1 false)
  call void @llvm.memset.p0.i64(ptr noundef nonnull align 8 dereferenceable(1152) %4, i8 0, i64 1152, i1 false)
  call void @llvm.memset.p0.i64(ptr noundef nonnull align 8 dereferenceable(528) %5, i8 0, i64 528, i1 false)
  %20 = load i32, ptr %.8.val, align 8
  %21 = getelementptr inbounds nuw i8, ptr %4, i64 64
  store i32 %20, ptr %21, align 8
  %22 = getelementptr inbounds nuw i8, ptr %.8.val, i64 8
  %23 = load i64, ptr %22, align 8
  %.not = icmp eq i64 %23, -2
  br i1 %.not, label %26, label %24

24:                                               ; preds = %19
  %25 = getelementptr inbounds nuw i8, ptr %4, i64 192
  store i64 %23, ptr %25, align 8
  br label %26

26:                                               ; preds = %24, %19
  %27 = getelementptr inbounds nuw i8, ptr %.8.val, i64 16
  %28 = load i64, ptr %27, align 8
  %29 = getelementptr inbounds nuw i8, ptr %4, i64 232
  store i64 %28, ptr %29, align 8
  %30 = getelementptr inbounds nuw i8, ptr %.8.val, i64 24
  %31 = load i32, ptr %30, align 8
  %32 = getelementptr inbounds nuw i8, ptr %3, i64 92
  store i32 %31, ptr %32, align 4
  %33 = getelementptr inbounds nuw i8, ptr %.8.val, i64 32
  %34 = load ptr, ptr %33, align 8
  %35 = getelementptr inbounds nuw i8, ptr %3, i64 144
  store ptr %34, ptr %35, align 8
  %36 = getelementptr inbounds nuw i8, ptr %.8.val, i64 80
  %37 = getelementptr inbounds nuw i8, ptr %.8.val, i64 88
  %38 = load i32, ptr %37, align 8
  %39 = getelementptr inbounds nuw i8, ptr %4, i64 392
  store i32 %38, ptr %39, align 8
  %40 = getelementptr inbounds nuw i8, ptr %.8.val, i64 56
  %41 = load i32, ptr %40, align 8
  %42 = getelementptr inbounds nuw i8, ptr %3, i64 240
  store i32 %41, ptr %42, align 8
  %43 = load ptr, ptr %0, align 8
  %44 = getelementptr inbounds nuw i8, ptr %43, i64 168
  %45 = load i16, ptr %44, align 8
  %46 = getelementptr inbounds nuw i8, ptr %4, i64 908
  store i16 %45, ptr %46, align 4
  %47 = getelementptr inbounds nuw i8, ptr %.8.val, i64 64
  %48 = load i64, ptr %47, align 8
  %49 = getelementptr inbounds nuw i8, ptr %4, i64 912
  store i64 %48, ptr %49, align 8
  %50 = getelementptr inbounds nuw i8, ptr %.8.val, i64 48
  %51 = load ptr, ptr %50, align 8
  %52 = getelementptr inbounds nuw i8, ptr %4, i64 1080
  store ptr %51, ptr %52, align 8
  %53 = getelementptr inbounds nuw i8, ptr %.8.val, i64 72
  %54 = load i16, ptr %53, align 8
  %55 = zext i16 %54 to i32
  %56 = getelementptr inbounds nuw i8, ptr %3, i64 276
  store i32 %55, ptr %56, align 4
  %57 = getelementptr inbounds nuw i8, ptr %3, i64 280
  call void @llvm.memcpy.p0.p0.i64(ptr noundef nonnull align 8 dereferenceable(24) %57, ptr noundef nonnull align 8 dereferenceable(24) %36, i64 24, i1 false)
  %58 = getelementptr inbounds nuw i8, ptr %.8.val, i64 40
  %59 = load i64, ptr %58, align 8
  %60 = getelementptr inbounds nuw i8, ptr %5, i64 464
  store i64 %59, ptr %60, align 8
  %61 = getelementptr inbounds nuw i8, ptr %.8.val, i64 104
  %62 = load i32, ptr %61, align 8
  %63 = getelementptr inbounds nuw i8, ptr %5, i64 296
  store i32 %62, ptr %63, align 8
  %64 = getelementptr inbounds nuw i8, ptr %4, i64 216
  store ptr %5, ptr %64, align 8
  %65 = getelementptr inbounds nuw i8, ptr %3, i64 136
  store ptr %4, ptr %65, align 8
  %66 = getelementptr inbounds nuw i8, ptr %0, i64 56
  %67 = load ptr, ptr %66, align 8
  %68 = call i32 @jobacct_storage_g_step_complete(ptr noundef %67, ptr noundef nonnull %3) #10
  %.not36 = icmp eq i32 %68, 0
  br i1 %.not36, label %73, label %69

69:                                               ; preds = %26
  %70 = tail call ptr @__errno_location() #12
  %71 = load i32, ptr %70, align 4
  %72 = icmp eq i32 %71, 740
  %spec.select = select i1 %72, i32 0, i32 %68
  br label %73

73:                                               ; preds = %69, %26
  %.1 = phi i32 [ 0, %26 ], [ %spec.select, %69 ]
  %74 = getelementptr inbounds nuw i8, ptr %4, i64 1120
  call void @slurm_xfree(ptr noundef nonnull %74) #10
  %75 = load ptr, ptr %0, align 8
  %76 = getelementptr inbounds nuw i8, ptr %75, i64 88
  %77 = load i16, ptr %76, align 8
  %.not37 = icmp eq i16 %77, 0
  br i1 %.not37, label %78, label %91

78:                                               ; preds = %73
  %79 = call i32 @get_log_level() #10
  %80 = icmp sgt i32 %79, 6
  br i1 %80, label %81, label %82

81:                                               ; preds = %78
  call void (i32, ptr, ...) @log_var(i32 noundef 7, ptr noundef nonnull @.str.145) #10
  br label %82

82:                                               ; preds = %81, %78
  %83 = load ptr, ptr %66, align 8
  %84 = load ptr, ptr %0, align 8
  %85 = getelementptr inbounds nuw i8, ptr %84, i64 80
  %86 = load ptr, ptr %85, align 8
  %87 = call i32 @clusteracct_storage_g_register_disconn_ctld(ptr noundef %83, ptr noundef %86) #10
  %88 = trunc i32 %87 to i16
  %89 = load ptr, ptr %0, align 8
  %90 = getelementptr inbounds nuw i8, ptr %89, i64 88
  store i16 %88, ptr %90, align 8
  call fastcc void @_add_registered_cluster(ptr noundef nonnull %0)
  br label %91

91:                                               ; preds = %73, %82, %10
  %.032 = phi i32 [ %.1, %73 ], [ %.1, %82 ], [ 2002, %10 ]
  %.0 = phi ptr [ null, %73 ], [ null, %82 ], [ @.str.143, %10 ]
  %92 = load ptr, ptr %0, align 8
  %93 = call ptr @slurm_persist_make_rc_msg(ptr noundef %92, i32 noundef %.032, ptr noundef %.0, i16 noundef zeroext 1441) #10
  store ptr %93, ptr %1, align 8
  call void @llvm.lifetime.end.p0(i64 528, ptr nonnull %5) #10
  call void @llvm.lifetime.end.p0(i64 1152, ptr nonnull %4) #10
  call void @llvm.lifetime.end.p0(i64 424, ptr nonnull %3) #10
  ret i32 %.032
}